target datalayout = "e-m:e-p270:32:32-p271:32:32-p272:64:64-i64:64-i128:128-f80:128-n8:16:32:64-S128"
target triple = "x86_64-unknown-linux-gnu"

%"struct.cvc5::internal::theory::arith::linear::ConstraintRule" = type { ptr, i32, i64, ptr }

; Function Attrs: mustprogress nounwind uwtable
define hidden void @_ZN4cvc58internal6theory5arith6linear14ConstraintRuleC2EPNS3_10ConstraintENS3_14ArithProofTypeEm(ptr noundef nonnull align 8 dereferenceable(32) %this, ptr noundef %con, i32 noundef %pt, i64 noundef %antecedentEnd) unnamed_addr #4 align 2 {
entry:
  %this.addr = alloca ptr, align 8
  %con.addr = alloca ptr, align 8
  %pt.addr = alloca i32, align 4
  %antecedentEnd.addr = alloca i64, align 8
  store ptr %this, ptr %this.addr, align 8
  store ptr %con, ptr %con.addr, align 8
  store i32 %pt, ptr %pt.addr, align 4
  store i64 %antecedentEnd, ptr %antecedentEnd.addr, align 8
  %this1 = load ptr, ptr %this.addr, align 8
  %d_constraint = getelementptr inbounds %"struct.cvc5::internal::theory::arith::linear::ConstraintRule", ptr %this1, i32 0, i32 0
  %0 = load ptr, ptr %con.addr, align 8
  store ptr %0, ptr %d_constraint, align 8
  %d_proofType = getelementptr inbounds %"struct.cvc5::internal::theory::arith::linear::ConstraintRule", ptr %this1, i32 0, i32 1
  %1 = load i32, ptr %pt.addr, align 4
  store i32 %1, ptr %d_proofType, align 8
  %d_antecedentEnd = getelementptr inbounds %"struct.cvc5::internal::theory::arith::linear::ConstraintRule", ptr %this1, i32 0, i32 2
  %2 = load i64, ptr %antecedentEnd.addr, align 8
  store i64 %2, ptr %d_antecedentEnd, align 8
  %d_farkasCoefficients = getelementptr inbounds %"struct.cvc5::internal::theory::arith::linear::ConstraintRule", ptr %this1, i32 0, i32 3
  store ptr null, ptr %d_farkasCoefficients, align 8
  ret void
}